Certificate:
    Data:
        Version: 3 (0x2)
        Serial Number:
            45:93:2a:fa:02:28:d8:68:65:59:2d:7f:78:1c:20:67
    Signature Algorithm: sha256WithRSAEncryption
        Issuer: CN=BARC CA
        Validity
            Not Before: Oct 17 03:06:20 2020 GMT
            Not After : Jan 20 03:06:20 2023 GMT
        Subject: CN=barcpi004
        Subject Public Key Info:
            Public Key Algorithm: rsaEncryption
                Public-Key: (2048 bit)
                Modulus:
                    00:b5:52:de:2e:79:57:02:e2:51:84:a0:df:92:20:
                    62:4a:3f:69:9c:08:34:32:9d:f9:4e:15:96:ce:67:
                    1c:e8:6a:3e:78:1c:b1:ac:d0:c3:5d:6e:c8:a5:26:
                    bb:22:ca:02:3a:22:f2:bf:75:6a:27:92:35:9b:31:
                    d0:8b:bb:c5:7d:47:d5:66:78:cf:04:ed:1d:ce:18:
                    26:e2:8a:3c:a9:c6:30:81:ea:fb:30:0e:cf:c0:b7:
                    cb:af:bb:40:d5:ad:52:4b:f1:d0:4b:5e:a6:5e:58:
                    dd:d3:4c:7d:21:50:61:46:37:81:17:fd:a3:7c:41:
                    9c:b8:1d:92:e0:aa:17:d8:e8:80:03:3d:28:a9:be:
                    d3:07:5f:83:b6:02:18:2d:29:00:3f:3f:5d:5c:77:
                    58:de:1c:8e:07:55:aa:e7:1f:b5:fa:92:e8:1d:50:
                    3b:d3:5d:8d:df:03:53:f4:d1:ac:c6:36:b9:e7:bc:
                    9a:bf:86:37:30:a1:14:22:c5:e3:08:e8:f7:a3:e1:
                    c5:e3:46:17:51:f1:55:41:5d:d2:48:ad:4f:73:9b:
                    b7:b9:7b:12:5e:fd:76:6b:e9:cb:ec:83:a5:c2:98:
                    f2:ee:3d:7b:0f:c1:37:56:73:ef:9c:f9:c4:90:bb:
                    f1:b5:3f:10:d3:e5:cc:15:7e:d7:af:f8:6b:02:5d:
                    a6:d5
                Exponent: 65537 (0x10001)
        X509v3 extensions:
            X509v3 Basic Constraints: 
                CA:FALSE
            X509v3 Subject Key Identifier: 
                B7:7F:C7:95:CD:1F:D9:5D:C8:29:80:B5:14:A7:57:CC:43:6F:BA:22
            X509v3 Authority Key Identifier: 
                keyid:31:0E:72:07:72:01:89:27:BD:F4:CA:75:F4:29:B2:AD:39:17:D9:6D
                DirName:/CN=BARC CA
                serial:8A:22:34:96:95:68:F1:AB

            X509v3 Extended Key Usage: 
                TLS Web Client Authentication
            X509v3 Key Usage: 
                Digital Signature
    Signature Algorithm: sha256WithRSAEncryption
         8c:88:9a:1a:21:55:a2:97:59:e8:a5:cc:56:b0:f8:b4:4c:77:
         86:5e:e1:b9:86:91:a5:20:79:32:8d:c1:a6:c7:8f:26:fa:e6:
         19:94:b2:fa:5d:6d:e1:17:30:0a:13:e7:fb:a9:37:d3:85:43:
         da:b6:88:4b:a2:b7:c8:b7:09:cb:1c:a2:d1:b3:75:90:7b:ac:
         6e:5d:30:21:44:c2:e0:4e:c8:37:d3:0f:60:64:1a:85:1c:b9:
         db:77:7a:ee:42:ec:98:92:8f:ec:d1:7e:74:19:6e:42:f5:b5:
         a2:31:96:0c:73:f1:e9:92:a9:96:3b:6a:04:a4:01:4a:85:3f:
         81:89:33:6c:bd:d0:25:bc:10:5a:1a:b5:e0:c5:5d:f1:3b:78:
         3d:54:2a:2c:d8:db:4f:b1:e1:bc:b4:01:c3:cb:21:9f:3a:f2:
         f6:c3:cc:d3:66:c8:51:ca:c9:34:7b:5e:18:5e:d1:61:d0:d2:
         71:b6:dd:08:a0:6e:b3:4b:b6:db:1b:7f:fb:90:82:fc:6c:1a:
         7c:8e:fd:a2:08:fb:a7:b2:c5:d2:b1:ea:ee:54:4a:0c:9e:49:
         6b:50:d6:4b:7d:4d:fc:fc:4b:37:da:71:5c:df:0c:bf:5e:fd:
         a4:0c:82:62:92:c9:d5:b0:ea:37:f4:b6:d8:0f:eb:e6:86:68:
         ca:a4:86:b8
-----BEGIN CERTIFICATE-----
MIIDRDCCAiygAwIBAgIQRZMq+gIo2GhlWS1/eBwgZzANBgkqhkiG9w0BAQsFADAS
MRAwDgYDVQQDDAdCQVJDIENBMB4XDTIwMTAxNzAzMDYyMFoXDTIzMDEyMDAzMDYy
MFowFDESMBAGA1UEAwwJYmFyY3BpMDA0MIIBIjANBgkqhkiG9w0BAQEFAAOCAQ8A
MIIBCgKCAQEAtVLeLnlXAuJRhKDfkiBiSj9pnAg0Mp35ThWWzmcc6Go+eByxrNDD
XW7IpSa7IsoCOiLyv3VqJ5I1mzHQi7vFfUfVZnjPBO0dzhgm4oo8qcYwger7MA7P
wLfLr7tA1a1SS/HQS16mXljd00x9IVBhRjeBF/2jfEGcuB2S4KoX2OiAAz0oqb7T
B1+DtgIYLSkAPz9dXHdY3hyOB1Wq5x+1+pLoHVA7012N3wNT9NGsxja557yav4Y3
MKEUIsXjCOj3o+HF40YXUfFVQV3SSK1Pc5u3uXsSXv12a+nL7IOlwpjy7j17D8E3
VnPvnPnEkLvxtT8Q0+XMFX7Xr/hrAl2m1QIDAQABo4GTMIGQMAkGA1UdEwQCMAAw
HQYDVR0OBBYEFLd/x5XNH9ldyCmAtRSnV8xDb7oiMEIGA1UdIwQ7MDmAFDEOcgdy
AYknvfTKdfQpsq05F9ltoRakFDASMRAwDgYDVQQDDAdCQVJDIENBggkAiiI0lpVo
8aswEwYDVR0lBAwwCgYIKwYBBQUHAwIwCwYDVR0PBAQDAgeAMA0GCSqGSIb3DQEB
CwUAA4IBAQCMiJoaIVWil1nopcxWsPi0THeGXuG5hpGlIHkyjcGmx48m+uYZlLL6
XW3hFzAKE+f7qTfThUPatohLorfItwnLHKLRs3WQe6xuXTAhRMLgTsg30w9gZBqF
HLnbd3ruQuyYko/s0X50GW5C9bWiMZYMc/HpkqmWO2oEpAFKhT+BiTNsvdAlvBBa
GrXgxV3xO3g9VCos2NtPseG8tAHDyyGfOvL2w8zTZshRysk0e14YXtFh0NJxtt0I
oG6zS7bbG3/7kIL8bBp8jv2iCPunssXSseruVEoMnklrUNZLfU38/Es32nFc3wy/
Xv2kDIJiksnVsOo39LbYD+vmhmjKpIa4
-----END CERTIFICATE-----
