Certificate:
    Data:
        Version: 3 (0x2)
        Serial Number:
            46:61:8c:39:4a:e3:a8:29:be:2a:b1:9d:1f:04:eb:1d
    Signature Algorithm: sha256WithRSAEncryption
        Issuer: CN=BARC CA
        Validity
            Not Before: Sep 28 05:38:49 2018 GMT
            Not After : Sep 12 05:38:49 2021 GMT
        Subject: CN=barcpi003
        Subject Public Key Info:
            Public Key Algorithm: rsaEncryption
                Public-Key: (2048 bit)
                Modulus:
                    00:d2:ac:8d:be:2d:83:4c:cb:96:ce:5f:6c:ba:70:
                    39:e9:d5:72:9e:35:e7:6f:65:2a:f7:05:8a:1b:c5:
                    47:ed:f8:23:d9:5f:08:ef:c9:2a:fe:89:7f:11:97:
                    02:0c:b6:5e:76:ff:ea:af:13:78:d1:49:dc:2a:c7:
                    4b:c4:32:e7:2f:55:f8:27:29:61:3d:7f:61:51:b3:
                    f3:a5:1f:51:aa:25:0f:b3:eb:6b:32:4a:8d:80:2a:
                    23:64:79:bc:33:6f:59:e0:2b:5e:2c:02:8e:7a:06:
                    28:c8:54:c4:9c:b2:ab:43:fc:41:cc:f5:ec:58:c8:
                    7b:ed:48:b9:a6:dc:cc:17:5d:71:16:7f:43:e3:10:
                    1c:a5:72:9e:74:cb:8b:e3:b4:64:86:48:4b:35:0c:
                    d2:9b:0c:17:0c:98:8d:f1:c8:2f:04:aa:00:6a:a1:
                    7a:72:cb:f5:14:be:f7:75:6a:a5:96:2e:f7:df:15:
                    74:b3:8d:08:5b:56:df:d4:a4:fe:fe:59:8c:f3:83:
                    97:9d:d7:eb:5f:37:14:40:e4:8a:1a:f6:95:37:8d:
                    69:67:16:c2:43:09:f3:dc:80:57:1f:83:42:3e:8b:
                    ac:45:8f:e1:f2:6d:df:4a:17:39:75:a5:dc:8a:24:
                    cb:19:68:80:fb:e1:1a:53:f4:f9:e3:44:9a:bb:1a:
                    f2:db
                Exponent: 65537 (0x10001)
        X509v3 extensions:
            X509v3 Basic Constraints: 
                CA:FALSE
            X509v3 Subject Key Identifier: 
                1F:5D:A7:57:CF:26:40:0A:F9:20:CE:E1:80:74:3C:84:B7:5C:20:7A
            X509v3 Authority Key Identifier: 
                keyid:31:0E:72:07:72:01:89:27:BD:F4:CA:75:F4:29:B2:AD:39:17:D9:6D
                DirName:/CN=BARC CA
                serial:8A:22:34:96:95:68:F1:AB

            X509v3 Extended Key Usage: 
                TLS Web Client Authentication
            X509v3 Key Usage: 
                Digital Signature
    Signature Algorithm: sha256WithRSAEncryption
         63:64:72:47:ab:74:05:7b:e3:fd:4f:17:20:b1:36:83:44:48:
         9c:94:d5:ab:58:bf:4a:2e:20:39:a3:f9:7b:87:49:52:15:50:
         4b:0d:13:ac:22:19:ba:6b:15:5d:c4:5a:58:a9:90:6c:3a:fa:
         e9:52:cf:33:da:f8:d9:ae:47:ff:e7:01:10:8b:5a:fe:93:45:
         a9:97:c6:b6:c4:67:24:3b:f3:56:53:85:38:5f:72:3c:a1:32:
         67:78:30:25:b3:27:0f:20:af:73:e1:2d:1f:69:eb:af:2b:ba:
         8b:ff:45:d8:90:d0:92:bf:0a:a7:2f:08:16:07:33:b8:17:07:
         88:55:85:dd:e0:cb:21:66:a6:7d:b8:8c:a9:58:22:af:f9:2e:
         d7:d1:37:a6:bb:ad:e2:34:48:d7:a1:87:3a:dd:45:45:c5:4d:
         a1:6a:43:fa:49:cd:66:c9:ce:15:61:3a:16:e9:48:0a:14:48:
         28:cf:ca:2b:3c:59:f6:b0:43:97:88:d3:a5:bb:5b:3d:a8:4b:
         ac:f5:08:cc:50:1b:fa:cd:8b:17:e3:5c:b4:7c:9f:e0:8d:90:
         c8:fa:d0:01:86:8e:f7:dc:70:af:1c:fb:59:0b:08:c5:10:61:
         86:b2:d5:64:f0:db:4e:a5:40:c1:15:7d:c7:b7:70:1c:53:38:
         c6:64:bf:9f
-----BEGIN CERTIFICATE-----
MIIDRDCCAiygAwIBAgIQRmGMOUrjqCm+KrGdHwTrHTANBgkqhkiG9w0BAQsFADAS
MRAwDgYDVQQDDAdCQVJDIENBMB4XDTE4MDkyODA1Mzg0OVoXDTIxMDkxMjA1Mzg0
OVowFDESMBAGA1UEAwwJYmFyY3BpMDAzMIIBIjANBgkqhkiG9w0BAQEFAAOCAQ8A
MIIBCgKCAQEA0qyNvi2DTMuWzl9sunA56dVynjXnb2Uq9wWKG8VH7fgj2V8I78kq
/ol/EZcCDLZedv/qrxN40UncKsdLxDLnL1X4JylhPX9hUbPzpR9RqiUPs+trMkqN
gCojZHm8M29Z4CteLAKOegYoyFTEnLKrQ/xBzPXsWMh77Ui5ptzMF11xFn9D4xAc
pXKedMuL47RkhkhLNQzSmwwXDJiN8cgvBKoAaqF6csv1FL73dWqlli733xV0s40I
W1bf1KT+/lmM84OXndfrXzcUQOSKGvaVN41pZxbCQwnz3IBXH4NCPousRY/h8m3f
Shc5daXciiTLGWiA++EaU/T540Sauxry2wIDAQABo4GTMIGQMAkGA1UdEwQCMAAw
HQYDVR0OBBYEFB9dp1fPJkAK+SDO4YB0PIS3XCB6MEIGA1UdIwQ7MDmAFDEOcgdy
AYknvfTKdfQpsq05F9ltoRakFDASMRAwDgYDVQQDDAdCQVJDIENBggkAiiI0lpVo
8aswEwYDVR0lBAwwCgYIKwYBBQUHAwIwCwYDVR0PBAQDAgeAMA0GCSqGSIb3DQEB
CwUAA4IBAQBjZHJHq3QFe+P9TxcgsTaDREiclNWrWL9KLiA5o/l7h0lSFVBLDROs
Ihm6axVdxFpYqZBsOvrpUs8z2vjZrkf/5wEQi1r+k0Wpl8a2xGckO/NWU4U4X3I8
oTJneDAlsycPIK9z4S0faeuvK7qL/0XYkNCSvwqnLwgWBzO4FweIVYXd4MshZqZ9
uIypWCKv+S7X0Temu63iNEjXoYc63UVFxU2hakP6Sc1myc4VYToW6UgKFEgoz8or
PFn2sEOXiNOlu1s9qEus9QjMUBv6zYsX41y0fJ/gjZDI+tABho733HCvHPtZCwjF
EGGGstVk8NtOpUDBFX3Ht3AcUzjGZL+f
-----END CERTIFICATE-----
