Certificate:
    Data:
        Version: 3 (0x2)
        Serial Number:
            ab:fd:47:6d:3b:53:6b:9b:6b:a7:cd:ac:ad:59:4f:78
    Signature Algorithm: sha256WithRSAEncryption
        Issuer: CN=BARC CA
        Validity
            Not Before: Oct 17 03:05:43 2020 GMT
            Not After : Jan 20 03:05:43 2023 GMT
        Subject: CN=barc-gateway
        Subject Public Key Info:
            Public Key Algorithm: rsaEncryption
                Public-Key: (2048 bit)
                Modulus:
                    00:b8:c8:cb:a4:70:43:96:94:5b:9e:85:68:e1:5f:
                    25:81:a3:2f:7a:00:0c:a9:a2:6a:ef:93:65:58:a4:
                    fa:5a:c8:3c:f1:58:4b:63:06:4c:bf:6d:83:53:3b:
                    14:8b:d4:c1:d5:64:ba:d8:6d:5d:08:90:0d:61:e0:
                    82:5d:ed:57:3f:15:ec:b8:9c:11:7b:3d:9e:1d:eb:
                    09:32:c5:4c:cf:14:04:f3:b5:c0:bc:52:b6:7e:28:
                    dd:0c:ba:14:b3:44:e5:e4:1f:c4:84:8c:e5:7d:cb:
                    f2:af:4a:92:ec:45:4a:be:eb:ab:04:86:7a:f0:a8:
                    f1:18:60:8c:f9:ab:bb:ec:39:b2:6c:f9:59:d7:69:
                    16:92:7b:96:03:21:91:75:1d:e6:6f:5e:9e:bb:50:
                    31:1d:64:e7:ba:37:c2:fa:a8:01:36:36:fe:ce:f8:
                    a9:e3:73:7c:36:1e:b2:7f:50:5d:ce:16:d6:26:fa:
                    eb:ea:0d:a1:57:f4:4f:58:a5:64:a9:6e:47:16:0e:
                    ce:2f:cc:6c:07:f8:1e:27:19:d0:95:be:49:59:d7:
                    4e:36:0e:87:60:c5:42:5c:45:39:80:a5:4b:53:dc:
                    0c:1e:e0:65:ce:58:26:18:ab:6b:a6:b9:a4:c3:d6:
                    3d:8a:3c:c1:fa:1a:5a:cd:e5:94:29:fb:92:49:3f:
                    a7:9f
                Exponent: 65537 (0x10001)
        X509v3 extensions:
            X509v3 Basic Constraints: 
                CA:FALSE
            X509v3 Subject Key Identifier: 
                16:62:D2:D4:BA:8B:86:7A:BE:2E:65:7D:61:5B:78:94:FD:B2:C4:BE
            X509v3 Authority Key Identifier: 
                keyid:31:0E:72:07:72:01:89:27:BD:F4:CA:75:F4:29:B2:AD:39:17:D9:6D
                DirName:/CN=BARC CA
                serial:8A:22:34:96:95:68:F1:AB

            X509v3 Extended Key Usage: 
                TLS Web Server Authentication
            X509v3 Key Usage: 
                Digital Signature, Key Encipherment
            X509v3 Subject Alternative Name: 
                DNS:barc-gateway
    Signature Algorithm: sha256WithRSAEncryption
         49:a1:d5:c0:94:2a:ea:ac:a7:a4:9f:2d:92:02:2e:37:7f:86:
         13:02:3e:39:86:c7:3b:8b:2f:2d:1d:d7:8c:ba:7c:2d:e3:1d:
         84:c2:d8:6d:1f:b8:27:81:51:65:e4:54:38:c2:ef:0b:cb:50:
         e3:07:32:65:5e:b8:52:9c:d4:c4:9c:6e:df:e6:2f:ff:8f:51:
         14:5b:8e:f3:d7:be:4a:97:83:4f:64:3a:0f:51:65:b1:91:04:
         59:f0:5b:41:2f:27:37:a9:5a:5e:1c:97:b6:e3:06:52:54:29:
         2a:95:20:48:d3:37:88:f0:0f:88:ab:25:6c:8f:e1:20:77:e4:
         60:6d:9d:4a:5f:69:dd:b1:99:a7:59:e2:5c:78:86:9d:6a:18:
         68:4e:3f:ce:b3:57:e3:73:cd:32:03:59:7c:24:27:4a:16:9e:
         19:67:38:d1:6b:1e:4a:5d:93:a8:df:c5:e4:ae:1d:bf:bc:4c:
         f8:7e:d4:29:9c:d9:89:58:c6:69:bd:fe:1f:5b:2a:c4:68:8e:
         a1:ee:15:df:40:ca:02:93:90:3a:2f:f8:73:c6:1e:e5:a1:f0:
         e5:63:10:59:84:3d:86:d7:8e:b2:81:1a:16:69:a8:2e:2b:c3:
         ab:c1:0f:f6:1a:ae:3c:66:f8:e4:ae:10:37:46:3e:d3:98:b6:
         41:27:09:a5
-----BEGIN CERTIFICATE-----
MIIDYTCCAkmgAwIBAgIRAKv9R207U2uba6fNrK1ZT3gwDQYJKoZIhvcNAQELBQAw
EjEQMA4GA1UEAwwHQkFSQyBDQTAeFw0yMDEwMTcwMzA1NDNaFw0yMzAxMjAwMzA1
NDNaMBcxFTATBgNVBAMMDGJhcmMtZ2F0ZXdheTCCASIwDQYJKoZIhvcNAQEBBQAD
ggEPADCCAQoCggEBALjIy6RwQ5aUW56FaOFfJYGjL3oADKmiau+TZVik+lrIPPFY
S2MGTL9tg1M7FIvUwdVkuthtXQiQDWHggl3tVz8V7LicEXs9nh3rCTLFTM8UBPO1
wLxStn4o3Qy6FLNE5eQfxISM5X3L8q9KkuxFSr7rqwSGevCo8RhgjPmru+w5smz5
WddpFpJ7lgMhkXUd5m9enrtQMR1k57o3wvqoATY2/s74qeNzfDYesn9QXc4W1ib6
6+oNoVf0T1ilZKluRxYOzi/MbAf4HicZ0JW+SVnXTjYOh2DFQlxFOYClS1PcDB7g
Zc5YJhira6a5pMPWPYo8wfoaWs3llCn7kkk/p58CAwEAAaOBrDCBqTAJBgNVHRME
AjAAMB0GA1UdDgQWBBQWYtLUuouGer4uZX1hW3iU/bLEvjBCBgNVHSMEOzA5gBQx
DnIHcgGJJ730ynX0KbKtORfZbaEWpBQwEjEQMA4GA1UEAwwHQkFSQyBDQYIJAIoi
NJaVaPGrMBMGA1UdJQQMMAoGCCsGAQUFBwMBMAsGA1UdDwQEAwIFoDAXBgNVHREE
EDAOggxiYXJjLWdhdGV3YXkwDQYJKoZIhvcNAQELBQADggEBAEmh1cCUKuqsp6Sf
LZICLjd/hhMCPjmGxzuLLy0d14y6fC3jHYTC2G0fuCeBUWXkVDjC7wvLUOMHMmVe
uFKc1MScbt/mL/+PURRbjvPXvkqXg09kOg9RZbGRBFnwW0EvJzepWl4cl7bjBlJU
KSqVIEjTN4jwD4irJWyP4SB35GBtnUpfad2xmadZ4lx4hp1qGGhOP86zV+NzzTID
WXwkJ0oWnhlnONFrHkpdk6jfxeSuHb+8TPh+1Cmc2YlYxmm9/h9bKsRojqHuFd9A
ygKTkDov+HPGHuWh8OVjEFmEPYbXjrKBGhZpqC4rw6vBD/Yarjxm+OSuEDdGPtOY
tkEnCaU=
-----END CERTIFICATE-----
