Certificate:
    Data:
        Version: 3 (0x2)
        Serial Number:
            db:4d:61:98:0e:7b:cf:85:f8:c6:18:9f:58:6a:fb:c3
    Signature Algorithm: sha256WithRSAEncryption
        Issuer: CN=BARC CA
        Validity
            Not Before: Oct 17 03:06:08 2020 GMT
            Not After : Jan 20 03:06:08 2023 GMT
        Subject: CN=trasukg
        Subject Public Key Info:
            Public Key Algorithm: rsaEncryption
                Public-Key: (2048 bit)
                Modulus:
                    00:ba:8d:02:ec:24:8f:8b:3a:af:3f:eb:87:16:e5:
                    2a:c6:88:50:56:a3:be:83:d7:b1:e9:c6:67:c3:52:
                    4e:a8:77:df:c3:1b:1c:4d:83:a3:00:d1:cb:e8:02:
                    cc:0b:30:b1:a9:c3:b9:9f:7c:9d:ef:7c:ee:3e:fe:
                    2f:a7:f9:43:1e:79:73:88:6b:41:0e:7c:e5:e3:6d:
                    dc:41:59:2f:91:af:2f:c1:78:a5:79:98:e9:a3:c5:
                    0f:79:ff:c6:c1:ec:7b:1d:4f:07:3b:6b:4c:00:d7:
                    01:f0:9c:75:f2:05:7a:41:c4:1b:2d:11:38:14:89:
                    32:db:d9:45:fe:c5:25:5e:d9:f2:a0:15:9e:74:2f:
                    1b:1c:7c:6a:26:30:a6:93:ff:f7:19:b7:dc:13:58:
                    36:88:b5:fb:79:80:47:30:00:61:30:f1:05:e1:8b:
                    f7:ef:12:1a:86:c3:e4:3a:a3:bb:59:04:1e:24:89:
                    b3:46:53:22:97:52:b9:93:45:83:3a:88:b8:44:e4:
                    2c:ae:86:79:f5:c8:be:48:18:53:e9:4b:07:6a:1f:
                    27:50:da:d1:81:86:2c:f6:c7:8e:f6:cb:67:2c:30:
                    9e:20:22:60:c2:41:ec:1a:21:e6:bb:35:00:15:49:
                    7b:8b:cc:59:53:6f:bf:89:e1:98:0c:5e:7b:d2:39:
                    8e:2f
                Exponent: 65537 (0x10001)
        X509v3 extensions:
            X509v3 Basic Constraints: 
                CA:FALSE
            X509v3 Subject Key Identifier: 
                72:BC:DD:00:AD:8B:35:52:14:21:8E:0C:3E:64:9D:0E:8A:80:0A:10
            X509v3 Authority Key Identifier: 
                keyid:31:0E:72:07:72:01:89:27:BD:F4:CA:75:F4:29:B2:AD:39:17:D9:6D
                DirName:/CN=BARC CA
                serial:8A:22:34:96:95:68:F1:AB

            X509v3 Extended Key Usage: 
                TLS Web Client Authentication
            X509v3 Key Usage: 
                Digital Signature
    Signature Algorithm: sha256WithRSAEncryption
         85:1f:c7:5b:65:cb:ba:d3:02:d9:9d:b5:9d:f4:8c:6c:cd:c6:
         33:b6:79:93:8e:9d:45:6b:0c:a2:ab:24:dd:87:fe:37:16:28:
         a5:02:a0:26:74:2f:91:cf:3e:6a:ff:fb:04:68:18:1b:5d:89:
         fe:9f:f4:d8:f9:66:f5:18:28:46:f1:b1:8e:0c:44:ff:03:fe:
         7b:7f:8d:0e:3c:13:09:13:ea:f9:b1:8a:05:40:04:4a:f8:4f:
         13:45:66:0b:91:c3:b0:8b:c4:b8:29:03:ac:50:87:1e:02:57:
         f6:93:0a:00:ac:0b:c1:00:eb:d3:e2:de:12:ad:21:13:03:44:
         c4:02:7f:80:18:af:d4:ee:8b:8e:4f:3d:d4:69:fa:bf:7a:7a:
         df:a7:04:41:90:4a:06:c5:09:dd:fa:9f:42:d2:f0:52:f0:1c:
         fe:2b:ca:78:12:60:80:64:e9:65:ff:7f:b4:0d:b7:0b:c9:eb:
         75:38:74:81:32:0b:7d:6f:08:87:17:fb:30:85:40:f7:17:9f:
         4f:ef:5c:4d:49:76:14:72:fc:a0:dc:04:c6:fa:f1:da:9c:ba:
         14:d1:1d:2c:a6:f0:66:58:6d:52:7f:00:79:ef:53:c1:49:28:
         1a:57:37:5e:a1:4e:b6:f9:4b:84:4a:58:78:d3:b5:5f:41:a4:
         82:09:2b:4d
-----BEGIN CERTIFICATE-----
MIIDQzCCAiugAwIBAgIRANtNYZgOe8+F+MYYn1hq+8MwDQYJKoZIhvcNAQELBQAw
EjEQMA4GA1UEAwwHQkFSQyBDQTAeFw0yMDEwMTcwMzA2MDhaFw0yMzAxMjAwMzA2
MDhaMBIxEDAOBgNVBAMMB3RyYXN1a2cwggEiMA0GCSqGSIb3DQEBAQUAA4IBDwAw
ggEKAoIBAQC6jQLsJI+LOq8/64cW5SrGiFBWo76D17HpxmfDUk6od9/DGxxNg6MA
0cvoAswLMLGpw7mffJ3vfO4+/i+n+UMeeXOIa0EOfOXjbdxBWS+Rry/BeKV5mOmj
xQ95/8bB7HsdTwc7a0wA1wHwnHXyBXpBxBstETgUiTLb2UX+xSVe2fKgFZ50Lxsc
fGomMKaT//cZt9wTWDaItft5gEcwAGEw8QXhi/fvEhqGw+Q6o7tZBB4kibNGUyKX
UrmTRYM6iLhE5Cyuhnn1yL5IGFPpSwdqHydQ2tGBhiz2x472y2csMJ4gImDCQewa
Iea7NQAVSXuLzFlTb7+J4ZgMXnvSOY4vAgMBAAGjgZMwgZAwCQYDVR0TBAIwADAd
BgNVHQ4EFgQUcrzdAK2LNVIUIY4MPmSdDoqAChAwQgYDVR0jBDswOYAUMQ5yB3IB
iSe99Mp19CmyrTkX2W2hFqQUMBIxEDAOBgNVBAMMB0JBUkMgQ0GCCQCKIjSWlWjx
qzATBgNVHSUEDDAKBggrBgEFBQcDAjALBgNVHQ8EBAMCB4AwDQYJKoZIhvcNAQEL
BQADggEBAIUfx1tly7rTAtmdtZ30jGzNxjO2eZOOnUVrDKKrJN2H/jcWKKUCoCZ0
L5HPPmr/+wRoGBtdif6f9Nj5ZvUYKEbxsY4MRP8D/nt/jQ48EwkT6vmxigVABEr4
TxNFZguRw7CLxLgpA6xQhx4CV/aTCgCsC8EA69Pi3hKtIRMDRMQCf4AYr9Tui45P
PdRp+r96et+nBEGQSgbFCd36n0LS8FLwHP4ryngSYIBk6WX/f7QNtwvJ63U4dIEy
C31vCIcX+zCFQPcXn0/vXE1JdhRy/KDcBMb68dqcuhTRHSym8GZYbVJ/AHnvU8FJ
KBpXN16hTrb5S4RKWHjTtV9BpIIJK00=
-----END CERTIFICATE-----
