Certificate:
    Data:
        Version: 3 (0x2)
        Serial Number:
            14:7c:19:0a:78:5d:3b:ea:14:84:b3:13:87:0a:0b:1a
    Signature Algorithm: sha256WithRSAEncryption
        Issuer: CN=BARC CA
        Validity
            Not Before: Sep 12 21:38:28 2021 GMT
            Not After : Dec 16 21:38:28 2023 GMT
        Subject: CN=trasukg
        Subject Public Key Info:
            Public Key Algorithm: rsaEncryption
                Public-Key: (2048 bit)
                Modulus:
                    00:c2:fb:3d:0e:57:93:a3:f2:6f:e4:d7:46:b3:80:
                    38:b5:d7:47:65:c9:e3:fb:92:bd:ff:c9:7c:bd:b4:
                    34:41:c7:fc:7f:a0:6a:e4:90:be:00:e3:63:17:4d:
                    71:31:7f:70:ee:ce:d6:8a:b6:37:83:2e:40:73:9f:
                    a0:7f:a8:9b:7b:b7:75:c7:83:74:b2:d9:27:bf:5c:
                    89:a1:ec:29:9a:43:fa:f7:0e:5e:e3:65:06:e3:30:
                    7f:a2:18:90:58:ce:7e:52:a4:fb:52:4c:36:7f:62:
                    af:ef:b6:d0:2b:b4:1a:74:aa:ef:4e:86:54:e2:f0:
                    59:e3:37:e3:47:c9:b9:9e:17:4d:33:87:5a:15:2c:
                    3b:99:f7:99:08:90:28:50:ef:06:b0:5f:72:76:60:
                    c4:0f:3e:5e:20:a5:1c:5d:25:26:ca:c5:b0:86:56:
                    b6:89:ac:32:ed:a1:58:94:0e:2d:df:91:8b:64:19:
                    d5:e1:6c:1f:02:3d:71:86:d3:03:36:3d:f7:83:4e:
                    21:27:06:75:51:34:3c:bd:d3:ee:a9:2a:c3:47:3d:
                    21:58:84:c1:f8:17:93:95:ab:cd:81:a4:16:b5:1b:
                    fa:fc:f8:43:28:9f:fa:ee:41:6b:fe:9b:e7:83:91:
                    bb:91:8d:18:ff:06:d4:cb:6e:b5:15:b4:da:1b:e7:
                    4a:79
                Exponent: 65537 (0x10001)
        X509v3 extensions:
            X509v3 Basic Constraints: 
                CA:FALSE
            X509v3 Subject Key Identifier: 
                48:C8:DF:70:94:75:AD:25:75:37:F1:1C:11:70:3D:75:5C:60:24:A8
            X509v3 Authority Key Identifier: 
                keyid:31:0E:72:07:72:01:89:27:BD:F4:CA:75:F4:29:B2:AD:39:17:D9:6D
                DirName:/CN=BARC CA
                serial:8A:22:34:96:95:68:F1:AB

            X509v3 Extended Key Usage: 
                TLS Web Client Authentication
            X509v3 Key Usage: 
                Digital Signature
    Signature Algorithm: sha256WithRSAEncryption
         3c:00:a7:bf:63:e5:0e:8d:04:19:82:c1:c1:89:8f:9f:68:29:
         4a:52:6c:0e:dc:d6:67:61:75:0c:8e:3e:fa:5d:68:8f:1b:45:
         66:be:76:ae:fc:cd:29:a2:9b:74:8b:2b:93:ab:b5:7d:80:65:
         35:69:76:7e:78:41:13:a7:8a:50:c4:9b:db:39:da:01:05:87:
         d4:96:65:d5:be:e6:61:c8:a3:b4:dc:82:c1:cb:b9:60:91:0f:
         82:6e:45:0d:b0:a8:fe:d8:a1:95:7c:a7:32:a8:10:e3:39:9f:
         63:f7:72:45:90:62:d3:03:a5:d2:cf:43:ab:0f:70:3e:66:0e:
         06:10:6c:50:af:b2:8c:96:6f:5a:54:c3:7f:52:83:83:30:41:
         86:99:24:72:d4:44:da:ab:31:13:f8:77:b7:1f:2c:ad:9b:fd:
         b0:44:81:dc:9b:d2:2a:5d:13:40:86:33:0a:bc:2e:36:88:30:
         25:92:7b:3f:7b:e2:c1:f5:b7:22:05:21:7d:e1:f3:76:a4:e5:
         d8:24:e2:31:1a:1c:82:64:57:82:06:c2:db:25:8d:b6:5d:d9:
         6e:4f:39:79:7c:ab:d7:cc:7e:10:ba:b1:87:37:14:86:b2:d2:
         a2:9c:e7:2b:ce:d3:d2:91:cb:e4:3f:da:9b:d4:9e:cf:ca:5a:
         f0:04:1d:b3
-----BEGIN CERTIFICATE-----
MIIDQjCCAiqgAwIBAgIQFHwZCnhdO+oUhLMThwoLGjANBgkqhkiG9w0BAQsFADAS
MRAwDgYDVQQDDAdCQVJDIENBMB4XDTIxMDkxMjIxMzgyOFoXDTIzMTIxNjIxMzgy
OFowEjEQMA4GA1UEAwwHdHJhc3VrZzCCASIwDQYJKoZIhvcNAQEBBQADggEPADCC
AQoCggEBAML7PQ5Xk6Pyb+TXRrOAOLXXR2XJ4/uSvf/JfL20NEHH/H+gauSQvgDj
YxdNcTF/cO7O1oq2N4MuQHOfoH+om3u3dceDdLLZJ79ciaHsKZpD+vcOXuNlBuMw
f6IYkFjOflKk+1JMNn9ir++20Cu0GnSq706GVOLwWeM340fJuZ4XTTOHWhUsO5n3
mQiQKFDvBrBfcnZgxA8+XiClHF0lJsrFsIZWtomsMu2hWJQOLd+Ri2QZ1eFsHwI9
cYbTAzY994NOIScGdVE0PL3T7qkqw0c9IViEwfgXk5WrzYGkFrUb+vz4Qyif+u5B
a/6b54ORu5GNGP8G1MtutRW02hvnSnkCAwEAAaOBkzCBkDAJBgNVHRMEAjAAMB0G
A1UdDgQWBBRIyN9wlHWtJXU38RwRcD11XGAkqDBCBgNVHSMEOzA5gBQxDnIHcgGJ
J730ynX0KbKtORfZbaEWpBQwEjEQMA4GA1UEAwwHQkFSQyBDQYIJAIoiNJaVaPGr
MBMGA1UdJQQMMAoGCCsGAQUFBwMCMAsGA1UdDwQEAwIHgDANBgkqhkiG9w0BAQsF
AAOCAQEAPACnv2PlDo0EGYLBwYmPn2gpSlJsDtzWZ2F1DI4++l1ojxtFZr52rvzN
KaKbdIsrk6u1fYBlNWl2fnhBE6eKUMSb2znaAQWH1JZl1b7mYcijtNyCwcu5YJEP
gm5FDbCo/tihlXynMqgQ4zmfY/dyRZBi0wOl0s9Dqw9wPmYOBhBsUK+yjJZvWlTD
f1KDgzBBhpkkctRE2qsxE/h3tx8srZv9sESB3JvSKl0TQIYzCrwuNogwJZJ7P3vi
wfW3IgUhfeHzdqTl2CTiMRocgmRXggbC2yWNtl3Zbk85eXyr18x+ELqxhzcUhrLS
opznK87T0pHL5D/am9Sez8pa8AQdsw==
-----END CERTIFICATE-----
